target datalayout = "e-m:e-p270:32:32-p271:32:32-p272:64:64-i64:64-i128:128-f80:128-n8:16:32:64-S128"
target triple = "x86_64-pc-linux-gnu"

%struct.WebPDecBuffer = type { i32, i32, i32, i32, %union.anon, [4 x i32], ptr }
%union.anon = type { %struct.WebPYUVABuffer }
%struct.WebPYUVABuffer = type { ptr, ptr, ptr, ptr, i32, i32, i32, i32, i64, i64, i64, i64 }
%struct.WebPRGBABuffer = type { ptr, i32, i64 }

@.str.1 = private unnamed_addr constant [14 x i8] c"P5\0A%u %u\0A255\0A\00", align 1

; Function Attrs: nounwind uwtable
define hidden i32 @WebPWrite16bAsPGM(ptr noundef %0, ptr noundef %1) #0 {
  %3 = alloca i32, align 4
  %4 = alloca ptr, align 8
  %5 = alloca ptr, align 8
  %6 = alloca i32, align 4
  %7 = alloca i32, align 4
  %8 = alloca ptr, align 8
  %9 = alloca i32, align 4
  %10 = alloca i32, align 4
  %11 = alloca i32, align 4
  %12 = alloca i32, align 4
  store ptr %0, ptr %4, align 8, !tbaa !4
  store ptr %1, ptr %5, align 8, !tbaa !9
  call void @llvm.lifetime.start.p0(i64 4, ptr %6) #9
  call void @llvm.lifetime.start.p0(i64 4, ptr %7) #9
  call void @llvm.lifetime.start.p0(i64 8, ptr %8) #9
  call void @llvm.lifetime.start.p0(i64 4, ptr %9) #9
  call void @llvm.lifetime.start.p0(i64 4, ptr %10) #9
  store i32 2, ptr %10, align 4, !tbaa !19
  call void @llvm.lifetime.start.p0(i64 4, ptr %11) #9
  %13 = load ptr, ptr %4, align 8, !tbaa !4
  %14 = icmp eq ptr %13, null
  br i1 %14, label %18, label %15

15:                                               ; preds = %2
  %16 = load ptr, ptr %5, align 8, !tbaa !9
  %17 = icmp eq ptr %16, null
  br i1 %17, label %18, label %19

18:                                               ; preds = %15, %2
  store i32 0, ptr %3, align 4
  store i32 1, ptr %12, align 4
  br label %64

19:                                               ; preds = %15
  %20 = load ptr, ptr %5, align 8, !tbaa !9
  %21 = getelementptr inbounds nuw %struct.WebPDecBuffer, ptr %20, i32 0, i32 1
  %22 = load i32, ptr %21, align 4, !tbaa !15
  store i32 %22, ptr %6, align 4, !tbaa !19
  %23 = load ptr, ptr %5, align 8, !tbaa !9
  %24 = getelementptr inbounds nuw %struct.WebPDecBuffer, ptr %23, i32 0, i32 2
  %25 = load i32, ptr %24, align 8, !tbaa !20
  store i32 %25, ptr %7, align 4, !tbaa !19
  %26 = load ptr, ptr %5, align 8, !tbaa !9
  %27 = getelementptr inbounds nuw %struct.WebPDecBuffer, ptr %26, i32 0, i32 4
  %28 = getelementptr inbounds nuw %struct.WebPRGBABuffer, ptr %27, i32 0, i32 0
  %29 = load ptr, ptr %28, align 8, !tbaa !21
  store ptr %29, ptr %8, align 8, !tbaa !22
  %30 = load ptr, ptr %5, align 8, !tbaa !9
  %31 = getelementptr inbounds nuw %struct.WebPDecBuffer, ptr %30, i32 0, i32 4
  %32 = getelementptr inbounds nuw %struct.WebPRGBABuffer, ptr %31, i32 0, i32 1
  %33 = load i32, ptr %32, align 8, !tbaa !21
  store i32 %33, ptr %9, align 4, !tbaa !19
  %34 = load ptr, ptr %8, align 8, !tbaa !22
  %35 = icmp eq ptr %34, null
  br i1 %35, label %36, label %37

36:                                               ; preds = %19
  store i32 0, ptr %3, align 4
  store i32 1, ptr %12, align 4
  br label %64

37:                                               ; preds = %19
  %38 = load ptr, ptr %4, align 8, !tbaa !4
  %39 = load i32, ptr %6, align 4, !tbaa !19
  %40 = mul i32 %39, 2
  %41 = load i32, ptr %7, align 4, !tbaa !19
  %42 = call i32 (ptr, ptr, ...) @fprintf(ptr noundef %38, ptr noundef @.str.1, i32 noundef %40, i32 noundef %41) #9
  store i32 0, ptr %11, align 4, !tbaa !19
  br label %43

43:                                               ; preds = %60, %37
  %44 = load i32, ptr %11, align 4, !tbaa !19
  %45 = load i32, ptr %7, align 4, !tbaa !19
  %46 = icmp ult i32 %44, %45
  br i1 %46, label %47, label %63

47:                                               ; preds = %43
  %48 = load ptr, ptr %8, align 8, !tbaa !22
  %49 = load i32, ptr %6, align 4, !tbaa !19
  %50 = zext i32 %49 to i64
  %51 = load ptr, ptr %4, align 8, !tbaa !4
  %52 = call i64 @fwrite(ptr noundef %48, i64 noundef %50, i64 noundef 2, ptr noundef %51)
  %53 = icmp ne i64 %52, 2
  br i1 %53, label %54, label %55

54:                                               ; preds = %47
  store i32 0, ptr %3, align 4
  store i32 1, ptr %12, align 4
  br label %64

55:                                               ; preds = %47
  %56 = load i32, ptr %9, align 4, !tbaa !19
  %57 = load ptr, ptr %8, align 8, !tbaa !22
  %58 = sext i32 %56 to i64
  %59 = getelementptr inbounds i8, ptr %57, i64 %58
  store ptr %59, ptr %8, align 8, !tbaa !22
  br label %60

60:                                               ; preds = %55
  %61 = load i32, ptr %11, align 4, !tbaa !19
  %62 = add i32 %61, 1
  store i32 %62, ptr %11, align 4, !tbaa !19
  br label %43, !llvm.loop !29

63:                                               ; preds = %43
  store i32 1, ptr %3, align 4
  store i32 1, ptr %12, align 4
  br label %64

64:                                               ; preds = %63, %54, %36, %18
  call void @llvm.lifetime.end.p0(i64 4, ptr %11) #9
  call void @llvm.lifetime.end.p0(i64 4, ptr %10) #9
  call void @llvm.lifetime.end.p0(i64 4, ptr %9) #9
  call void @llvm.lifetime.end.p0(i64 8, ptr %8) #9
  call void @llvm.lifetime.end.p0(i64 4, ptr %7) #9
  call void @llvm.lifetime.end.p0(i64 4, ptr %6) #9
  %65 = load i32, ptr %3, align 4
  ret i32 %65
}