; Function Attrs: nofree nounwind uwtable
define hidden range(i32 0, 2) i32 @WebPWrite16bAsPGM(ptr noundef captures(address_is_null) %0, ptr noundef readonly captures(address_is_null) %1) local_unnamed_addr #6 {
  %3 = icmp eq ptr %0, null
  %4 = icmp eq ptr %1, null
  %or.cond = or i1 %3, %4
  br i1 %or.cond, label %.loopexit, label %5

5:                                                ; preds = %2
  %6 = getelementptr inbounds nuw i8, ptr %1, i64 8
  %7 = load i32, ptr %6, align 8, !tbaa !15
  %8 = getelementptr inbounds nuw i8, ptr %1, i64 16
  %9 = load ptr, ptr %8, align 8, !tbaa !16
  %10 = getelementptr inbounds nuw i8, ptr %1, i64 24
  %11 = load i32, ptr %10, align 8, !tbaa !16
  %12 = icmp eq ptr %9, null
  br i1 %12, label %.loopexit, label %13

13:                                               ; preds = %5
  %14 = getelementptr inbounds nuw i8, ptr %1, i64 4
  %15 = load i32, ptr %14, align 4, !tbaa !11
  %16 = shl i32 %15, 1
  %17 = tail call i32 (ptr, ptr, ...) @fprintf(ptr noundef nonnull %0, ptr noundef nonnull @.str.1, i32 noundef %16, i32 noundef %7) #9
  %18 = zext i32 %15 to i64
  %.not28 = icmp eq i32 %7, 0
  br i1 %.not28, label %.loopexit, label %.lr.ph

.lr.ph:                                           ; preds = %13
  %19 = sext i32 %11 to i64
  br label %20

20:                                               ; preds = %.lr.ph, %22
  %.025 = phi i32 [ 0, %.lr.ph ], [ %24, %22 ]
  %.02024 = phi ptr [ %9, %.lr.ph ], [ %23, %22 ]
  %21 = tail call i64 @fwrite(ptr noundef %.02024, i64 noundef %18, i64 noundef 2, ptr noundef nonnull %0)
  %.not = icmp eq i64 %21, 2
  br i1 %.not, label %22, label %.loopexit

22:                                               ; preds = %20
  %23 = getelementptr inbounds i8, ptr %.02024, i64 %19
  %24 = add nuw i32 %.025, 1
  %exitcond.not = icmp eq i32 %24, %7
  br i1 %exitcond.not, label %.loopexit, label %20, !llvm.loop !22

.loopexit:                                        ; preds = %20, %22, %13, %5, %2
  %.019 = phi i32 [ 0, %2 ], [ 0, %5 ], [ 1, %13 ], [ 0, %20 ], [ 1, %22 ]
  ret i32 %.019
}